target datalayout = "e-m:e-p270:32:32-p271:32:32-p272:64:64-i64:64-i128:128-f80:128-n8:16:32:64-S128"
target triple = "x86_64-pc-linux-gnu"

%struct.H5R_ref_priv_t = type { %union.anon, i64, i32, i8, i8, i8 }
%union.anon = type { %struct.H5R_ref_priv_reg_t }
%struct.H5R_ref_priv_reg_t = type { %struct.H5R_ref_priv_obj_t, ptr }
%struct.H5R_ref_priv_obj_t = type { %struct.H5O_token_t, ptr }
%struct.H5O_token_t = type { [16 x i8] }

@H5R_init_g = global i8 0, align 1
@H5_libterm_g = external global i8, align 1
@.str = private unnamed_addr constant [100 x i8] c"generated/home/dtcxzyw/WorkSpace/Projects/compilers/llvm-opt-benchmark/bench/hdf5/hdf5/src/H5Rint.c\00", align 1
@__func__.H5R__create_object = private unnamed_addr constant [19 x i8] c"H5R__create_object\00", align 1
@H5E_REFERENCE_g = external global i64, align 8
@H5E_CANTSET_g = external global i64, align 8
@.str.1 = private unnamed_addr constant [27 x i8] c"unable to set object token\00", align 1
@H5E_CANTENCODE_g = external global i64, align 8
@.str.2 = private unnamed_addr constant [34 x i8] c"unable to determine encoding size\00", align 1

; Function Attrs: nounwind uwtable
define i32 @H5R__set_obj_token(ptr noundef %0, ptr noundef %1, i64 noundef %2) #0 {
  %4 = alloca ptr, align 8
  %5 = alloca ptr, align 8
  %6 = alloca i64, align 8
  %7 = alloca i32, align 4
  store ptr %0, ptr %4, align 8, !tbaa !14
  store ptr %1, ptr %5, align 8, !tbaa !9
  store i64 %2, ptr %6, align 8, !tbaa !12
  call void @llvm.lifetime.start.p0(i64 4, ptr %7) #9
  store i32 0, ptr %7, align 4, !tbaa !16
  %8 = load i8, ptr @H5R_init_g, align 1, !tbaa !3, !range !7, !noundef !8
  %9 = trunc i8 %8 to i1
  br i1 %9, label %14, label %10

10:                                               ; preds = %3
  %11 = load i8, ptr @H5_libterm_g, align 1, !tbaa !3, !range !7, !noundef !8
  %12 = trunc i8 %11 to i1
  %13 = xor i1 %12, true
  br label %14

14:                                               ; preds = %10, %3
  %15 = phi i1 [ true, %3 ], [ %13, %10 ]
  %16 = xor i1 %15, true
  %17 = xor i1 %16, true
  %18 = zext i1 %17 to i32
  %19 = sext i32 %18 to i64
  %20 = call i64 @llvm.expect.i64(i64 %19, i64 1)
  %21 = icmp ne i64 %20, 0
  br i1 %21, label %22, label %32

22:                                               ; preds = %14
  %23 = load ptr, ptr %4, align 8, !tbaa !14
  %24 = getelementptr inbounds nuw %struct.H5R_ref_priv_t, ptr %23, i32 0, i32 0
  %25 = getelementptr inbounds nuw %struct.H5R_ref_priv_obj_t, ptr %24, i32 0, i32 0
  %26 = load ptr, ptr %5, align 8, !tbaa !9
  %27 = load i64, ptr %6, align 8, !tbaa !12
  call void @llvm.memcpy.p0.p0.i64(ptr align 8 %25, ptr align 1 %26, i64 %27, i1 false)
  %28 = load i64, ptr %6, align 8, !tbaa !12
  %29 = trunc i64 %28 to i8
  %30 = load ptr, ptr %4, align 8, !tbaa !14
  %31 = getelementptr inbounds nuw %struct.H5R_ref_priv_t, ptr %30, i32 0, i32 4
  store i8 %29, ptr %31, align 1, !tbaa !23
  br label %32

32:                                               ; preds = %22, %14
  %33 = load i32, ptr %7, align 4, !tbaa !16
  call void @llvm.lifetime.end.p0(i64 4, ptr %7) #9
  ret i32 %33
}

; Function Attrs: nounwind uwtable
define i32 @H5R__create_object(ptr noundef %0, i64 noundef %1, ptr noundef %2) #0 {
  %4 = alloca ptr, align 8
  %5 = alloca i64, align 8
  %6 = alloca ptr, align 8
  %7 = alloca i64, align 8
  %8 = alloca i32, align 4
  %9 = alloca i8, align 1
  store ptr %0, ptr %4, align 8, !tbaa !9
  store i64 %1, ptr %5, align 8, !tbaa !12
  store ptr %2, ptr %6, align 8, !tbaa !14
  call void @llvm.lifetime.start.p0(i64 8, ptr %7) #9
  call void @llvm.lifetime.start.p0(i64 4, ptr %8) #9
  store i32 0, ptr %8, align 4, !tbaa !16
  call void @llvm.lifetime.start.p0(i64 1, ptr %9) #9
  store i8 0, ptr %9, align 1, !tbaa !3
  %10 = load i8, ptr @H5R_init_g, align 1, !tbaa !3, !range !7, !noundef !8
  %11 = trunc i8 %10 to i1
  br i1 %11, label %16, label %12

12:                                               ; preds = %3
  %13 = load i8, ptr @H5_libterm_g, align 1, !tbaa !3, !range !7, !noundef !8
  %14 = trunc i8 %13 to i1
  %15 = xor i1 %14, true
  br label %16

16:                                               ; preds = %12, %3
  %17 = phi i1 [ true, %3 ], [ %15, %12 ]
  %18 = xor i1 %17, true
  %19 = xor i1 %18, true
  %20 = zext i1 %19 to i32
  %21 = sext i32 %20 to i64
  %22 = call i64 @llvm.expect.i64(i64 %21, i64 1)
  %23 = icmp ne i64 %22, 0
  br i1 %23, label %24, label %88

24:                                               ; preds = %16
  %25 = load ptr, ptr %6, align 8, !tbaa !14
  %26 = getelementptr inbounds nuw %struct.H5R_ref_priv_t, ptr %25, i32 0, i32 0
  %27 = getelementptr inbounds nuw %struct.H5R_ref_priv_obj_t, ptr %26, i32 0, i32 1
  store ptr null, ptr %27, align 8, !tbaa !18
  %28 = load ptr, ptr %6, align 8, !tbaa !14
  %29 = getelementptr inbounds nuw %struct.H5R_ref_priv_t, ptr %28, i32 0, i32 1
  store i64 -1, ptr %29, align 8, !tbaa !19
  %30 = load ptr, ptr %6, align 8, !tbaa !14
  %31 = getelementptr inbounds nuw %struct.H5R_ref_priv_t, ptr %30, i32 0, i32 3
  store i8 2, ptr %31, align 4, !tbaa !21
  %32 = load ptr, ptr %6, align 8, !tbaa !14
  %33 = load ptr, ptr %4, align 8, !tbaa !9
  %34 = load i64, ptr %5, align 8, !tbaa !12
  %35 = call i32 @H5R__set_obj_token(ptr noundef %32, ptr noundef %33, i64 noundef %34)
  %36 = icmp slt i32 %35, 0
  br i1 %36, label %37, label %56

37:                                               ; preds = %24
  br label %38

38:                                               ; preds = %37
  br label %39

39:                                               ; preds = %38
  br label %40

40:                                               ; preds = %39
  %41 = load i64, ptr @H5E_REFERENCE_g, align 8, !tbaa !12
  %42 = load i64, ptr @H5E_CANTSET_g, align 8, !tbaa !12
  %43 = call i32 (ptr, ptr, i32, i64, i64, ptr, ...) @H5E_printf_stack(ptr noundef @.str, ptr noundef @__func__.H5R__create_object, i32 noundef 194, i64 noundef %41, i64 noundef %42, ptr noundef @.str.1)
  br label %44

44:                                               ; preds = %40
  br label %45

45:                                               ; preds = %44
  store i8 1, ptr %9, align 1, !tbaa !3
  %46 = load i8, ptr %9, align 1, !tbaa !3, !range !7, !noundef !8
  %47 = trunc i8 %46 to i1
  %48 = zext i1 %47 to i8
  store i8 %48, ptr %9, align 1, !tbaa !3
  br label %49

49:                                               ; preds = %45
  br label %50

50:                                               ; preds = %49
  br label %51

51:                                               ; preds = %50
  store i32 -1, ptr %8, align 4, !tbaa !16
  br label %87

52:                                               ; No predecessors!
  br label %53

53:                                               ; preds = %52
  br label %54

54:                                               ; preds = %53
  br label %55

55:                                               ; preds = %54
  br label %56

56:                                               ; preds = %55, %24
  %57 = load ptr, ptr %6, align 8, !tbaa !14
  %58 = call i32 @H5R__encode(ptr noundef null, ptr noundef %57, ptr noundef null, ptr noundef %7, i32 noundef 0)
  %59 = icmp slt i32 %58, 0
  br i1 %59, label %60, label %79

60:                                               ; preds = %56
  br label %61

61:                                               ; preds = %60
  br label %62

62:                                               ; preds = %61
  br label %63

63:                                               ; preds = %62
  %64 = load i64, ptr @H5E_REFERENCE_g, align 8, !tbaa !12
  %65 = load i64, ptr @H5E_CANTENCODE_g, align 8, !tbaa !12
  %66 = call i32 (ptr, ptr, i32, i64, i64, ptr, ...) @H5E_printf_stack(ptr noundef @.str, ptr noundef @__func__.H5R__create_object, i32 noundef 198, i64 noundef %64, i64 noundef %65, ptr noundef @.str.2)
  br label %67

67:                                               ; preds = %63
  br label %68

68:                                               ; preds = %67
  store i8 1, ptr %9, align 1, !tbaa !3
  %69 = load i8, ptr %9, align 1, !tbaa !3, !range !7, !noundef !8
  %70 = trunc i8 %69 to i1
  %71 = zext i1 %70 to i8
  store i8 %71, ptr %9, align 1, !tbaa !3
  br label %72

72:                                               ; preds = %68
  br label %73

73:                                               ; preds = %72
  br label %74

74:                                               ; preds = %73
  store i32 -1, ptr %8, align 4, !tbaa !16
  br label %87

75:                                               ; No predecessors!
  br label %76

76:                                               ; preds = %75
  br label %77

77:                                               ; preds = %76
  br label %78

78:                                               ; preds = %77
  br label %79

79:                                               ; preds = %78, %56
  %80 = load i64, ptr %7, align 8, !tbaa !12
  %81 = trunc i64 %80 to i32
  %82 = load ptr, ptr %6, align 8, !tbaa !14
  %83 = getelementptr inbounds nuw %struct.H5R_ref_priv_t, ptr %82, i32 0, i32 2
  store i32 %81, ptr %83, align 8, !tbaa !22
  br label %84

84:                                               ; preds = %79
  br label %85

85:                                               ; preds = %84
  br label %86

86:                                               ; preds = %85
  br label %87

87:                                               ; preds = %86, %74, %51
  br label %88

88:                                               ; preds = %87, %16
  %89 = load i32, ptr %8, align 4, !tbaa !16
  call void @llvm.lifetime.end.p0(i64 1, ptr %9) #9
  call void @llvm.lifetime.end.p0(i64 4, ptr %8) #9
  call void @llvm.lifetime.end.p0(i64 8, ptr %7) #9
  ret i32 %89
}