; Function Attrs: nounwind uwtable
define range(i32 -1, 1) i32 @H5R__create_object(ptr noundef readonly captures(none) %0, i64 noundef %1, ptr noundef captures(none) %2) local_unnamed_addr #1 {
  %4 = alloca i64, align 8
  call void @llvm.lifetime.start.p0(i64 8, ptr nonnull %4) #15
  %5 = load i8, ptr @H5R_init_g, align 1, !tbaa !3, !range !7, !noundef !8
  %6 = trunc nuw i8 %5 to i1
  %7 = load i8, ptr @H5_libterm_g, align 1, !range !7
  %8 = trunc nuw i8 %7 to i1
  %9 = xor i1 %8, true
  %10 = select i1 %6, i1 true, i1 %9
  br i1 %10, label %H5R__set_obj_token.exit, label %26, !prof !9

H5R__set_obj_token.exit:                          ; preds = %3
  %11 = getelementptr inbounds nuw i8, ptr %2, i64 16
  store ptr null, ptr %11, align 8, !tbaa !10
  %12 = getelementptr inbounds nuw i8, ptr %2, i64 32
  store i64 -1, ptr %12, align 8, !tbaa !11
  %13 = getelementptr inbounds nuw i8, ptr %2, i64 44
  store i8 2, ptr %13, align 4, !tbaa !15
  tail call void @llvm.memcpy.p0.p0.i64(ptr align 8 %2, ptr readonly align 1 %0, i64 %1, i1 false)
  %14 = trunc i64 %1 to i8
  %15 = getelementptr inbounds nuw i8, ptr %2, i64 45
  store i8 %14, ptr %15, align 1, !tbaa !16
  %16 = call i32 @H5R__encode(ptr noundef null, ptr noundef %2, ptr noundef null, ptr noundef nonnull %4, i32 noundef 0)
  %17 = icmp slt i32 %16, 0
  br i1 %17, label %18, label %22

18:                                               ; preds = %H5R__set_obj_token.exit
  %19 = load i64, ptr @H5E_REFERENCE_g, align 8, !tbaa !17
  %20 = load i64, ptr @H5E_CANTENCODE_g, align 8, !tbaa !17
  %21 = tail call i32 (ptr, ptr, i32, i64, i64, ptr, ...) @H5E_printf_stack(ptr noundef nonnull @.str, ptr noundef nonnull @__func__.H5R__create_object, i32 noundef 198, i64 noundef %19, i64 noundef %20, ptr noundef nonnull @.str.2) #15
  br label %26

22:                                               ; preds = %H5R__set_obj_token.exit
  %23 = load i64, ptr %4, align 8, !tbaa !17
  %24 = trunc i64 %23 to i32
  %25 = getelementptr inbounds nuw i8, ptr %2, i64 40
  store i32 %24, ptr %25, align 8, !tbaa !18
  br label %26

26:                                               ; preds = %18, %22, %3
  %.0 = phi i32 [ -1, %18 ], [ 0, %22 ], [ 0, %3 ]
  call void @llvm.lifetime.end.p0(i64 8, ptr nonnull %4) #15
  ret i32 %.0
}